
SD-Stoplight-Atmel.elf:     file format elf32-avr

Sections:
Idx Name          Size      VMA       LMA       File off  Algn
  0 .data         00000000  00803e00  00803e00  000001fa  2**0
                  CONTENTS, ALLOC, LOAD, DATA
  1 .text         00000186  00000000  00000000  00000074  2**1
                  CONTENTS, ALLOC, LOAD, READONLY, CODE
  2 .bss          00000001  00803e00  00803e00  000001fa  2**0
                  ALLOC
  3 .comment      00000030  00000000  00000000  000001fa  2**0
                  CONTENTS, READONLY
  4 .note.gnu.avr.deviceinfo 0000003c  00000000  00000000  0000022c  2**2
                  CONTENTS, READONLY
  5 .debug_info   000014a8  00000000  00000000  00000268  2**0
                  CONTENTS, READONLY, DEBUGGING
  6 .debug_abbrev 0000138a  00000000  00000000  00001710  2**0
                  CONTENTS, READONLY, DEBUGGING
  7 .debug_line   00000154  00000000  00000000  00002a9a  2**0
                  CONTENTS, READONLY, DEBUGGING
  8 .debug_str    000008cf  00000000  00000000  00002bee  2**0
                  CONTENTS, READONLY, DEBUGGING

Disassembly of section .text:

00000000 <__vectors>:
   0:	1e c0       	rjmp	.+60     	; 0x3e <__ctors_end>
   2:	2d c0       	rjmp	.+90     	; 0x5e <__bad_interrupt>
   4:	2c c0       	rjmp	.+88     	; 0x5e <__bad_interrupt>
   6:	2b c0       	rjmp	.+86     	; 0x5e <__bad_interrupt>
   8:	2a c0       	rjmp	.+84     	; 0x5e <__bad_interrupt>
   a:	29 c0       	rjmp	.+82     	; 0x5e <__bad_interrupt>
   c:	28 c0       	rjmp	.+80     	; 0x5e <__bad_interrupt>
   e:	27 c0       	rjmp	.+78     	; 0x5e <__bad_interrupt>
  10:	26 c0       	rjmp	.+76     	; 0x5e <__bad_interrupt>
  12:	25 c0       	rjmp	.+74     	; 0x5e <__bad_interrupt>
  14:	24 c0       	rjmp	.+72     	; 0x5e <__bad_interrupt>
  16:	23 c0       	rjmp	.+70     	; 0x5e <__bad_interrupt>
  18:	22 c0       	rjmp	.+68     	; 0x5e <__bad_interrupt>
  1a:	21 c0       	rjmp	.+66     	; 0x5e <__bad_interrupt>
  1c:	20 c0       	rjmp	.+64     	; 0x5e <__bad_interrupt>
  1e:	1f c0       	rjmp	.+62     	; 0x5e <__bad_interrupt>
  20:	1e c0       	rjmp	.+60     	; 0x5e <__bad_interrupt>
  22:	1d c0       	rjmp	.+58     	; 0x5e <__bad_interrupt>
  24:	1c c0       	rjmp	.+56     	; 0x5e <__bad_interrupt>
  26:	1b c0       	rjmp	.+54     	; 0x5e <__bad_interrupt>
  28:	1a c0       	rjmp	.+52     	; 0x5e <__bad_interrupt>
  2a:	19 c0       	rjmp	.+50     	; 0x5e <__bad_interrupt>
  2c:	18 c0       	rjmp	.+48     	; 0x5e <__bad_interrupt>
  2e:	17 c0       	rjmp	.+46     	; 0x5e <__bad_interrupt>
  30:	16 c0       	rjmp	.+44     	; 0x5e <__bad_interrupt>
  32:	15 c0       	rjmp	.+42     	; 0x5e <__bad_interrupt>
  34:	14 c0       	rjmp	.+40     	; 0x5e <__bad_interrupt>
  36:	13 c0       	rjmp	.+38     	; 0x5e <__bad_interrupt>
  38:	12 c0       	rjmp	.+36     	; 0x5e <__bad_interrupt>
  3a:	11 c0       	rjmp	.+34     	; 0x5e <__bad_interrupt>
  3c:	10 c0       	rjmp	.+32     	; 0x5e <__bad_interrupt>

0000003e <__ctors_end>:
  3e:	11 24       	eor	r1, r1
  40:	1f be       	out	0x3f, r1	; 63
  42:	cf ef       	ldi	r28, 0xFF	; 255
  44:	cd bf       	out	0x3d, r28	; 61
  46:	df e3       	ldi	r29, 0x3F	; 63
  48:	de bf       	out	0x3e, r29	; 62

0000004a <__do_clear_bss>:
  4a:	2e e3       	ldi	r18, 0x3E	; 62
  4c:	a0 e0       	ldi	r26, 0x00	; 0
  4e:	be e3       	ldi	r27, 0x3E	; 62
  50:	01 c0       	rjmp	.+2      	; 0x54 <.do_clear_bss_start>

00000052 <.do_clear_bss_loop>:
  52:	1d 92       	st	X+, r1

00000054 <.do_clear_bss_start>:
  54:	a1 30       	cpi	r26, 0x01	; 1
  56:	b2 07       	cpc	r27, r18
  58:	e1 f7       	brne	.-8      	; 0x52 <.do_clear_bss_loop>
  5a:	10 d0       	rcall	.+32     	; 0x7c <main>
  5c:	92 c0       	rjmp	.+292    	; 0x182 <_exit>

0000005e <__bad_interrupt>:
  5e:	d0 cf       	rjmp	.-96     	; 0x0 <__vectors>

00000060 <Deselect>:
  60:	30 91 14 04 	lds	r19, 0x0414	; 0x800414 <__TEXT_REGION_LENGTH__+0x700414>
  64:	e0 e2       	ldi	r30, 0x20	; 32
  66:	f8 e0       	ldi	r31, 0x08	; 8
  68:	20 81       	ld	r18, Z
  6a:	81 e0       	ldi	r24, 0x01	; 1
  6c:	90 e0       	ldi	r25, 0x00	; 0
  6e:	01 c0       	rjmp	.+2      	; 0x72 <Deselect+0x12>
  70:	88 0f       	add	r24, r24
  72:	3a 95       	dec	r19
  74:	ea f7       	brpl	.-6      	; 0x70 <Deselect+0x10>
  76:	82 2b       	or	r24, r18
  78:	80 83       	st	Z, r24
  7a:	08 95       	ret

0000007c <main>:
  7c:	80 91 14 04 	lds	r24, 0x0414	; 0x800414 <__TEXT_REGION_LENGTH__+0x700414>
  80:	20 91 01 04 	lds	r18, 0x0401	; 0x800401 <__TEXT_REGION_LENGTH__+0x700401>
  84:	c1 e0       	ldi	r28, 0x01	; 1
  86:	d0 e0       	ldi	r29, 0x00	; 0
  88:	ae 01       	movw	r20, r28
  8a:	02 c0       	rjmp	.+4      	; 0x90 <main+0x14>
  8c:	44 0f       	add	r20, r20
  8e:	55 1f       	adc	r21, r21
  90:	8a 95       	dec	r24
  92:	e2 f7       	brpl	.-8      	; 0x8c <main+0x10>
  94:	ca 01       	movw	r24, r20
  96:	82 2b       	or	r24, r18
  98:	80 93 01 04 	sts	0x0401, r24	; 0x800401 <__TEXT_REGION_LENGTH__+0x700401>
  9c:	e1 df       	rcall	.-62     	; 0x60 <Deselect>
  9e:	80 91 11 04 	lds	r24, 0x0411	; 0x800411 <__TEXT_REGION_LENGTH__+0x700411>
  a2:	20 91 13 04 	lds	r18, 0x0413	; 0x800413 <__TEXT_REGION_LENGTH__+0x700413>
  a6:	40 91 20 08 	lds	r20, 0x0820	; 0x800820 <__TEXT_REGION_LENGTH__+0x700820>
  aa:	be 01       	movw	r22, r28
  ac:	02 c0       	rjmp	.+4      	; 0xb2 <main+0x36>
  ae:	66 0f       	add	r22, r22
  b0:	77 1f       	adc	r23, r23
  b2:	8a 95       	dec	r24
  b4:	e2 f7       	brpl	.-8      	; 0xae <main+0x32>
  b6:	cb 01       	movw	r24, r22
  b8:	fe 01       	movw	r30, r28
  ba:	02 c0       	rjmp	.+4      	; 0xc0 <main+0x44>
  bc:	ee 0f       	add	r30, r30
  be:	ff 1f       	adc	r31, r31
  c0:	2a 95       	dec	r18
  c2:	e2 f7       	brpl	.-8      	; 0xbc <main+0x40>
  c4:	8e 2b       	or	r24, r30
  c6:	9f 2b       	or	r25, r31
  c8:	84 2b       	or	r24, r20
  ca:	80 93 20 08 	sts	0x0820, r24	; 0x800820 <__TEXT_REGION_LENGTH__+0x700820>
  ce:	80 91 11 04 	lds	r24, 0x0411	; 0x800411 <__TEXT_REGION_LENGTH__+0x700411>
  d2:	20 91 13 04 	lds	r18, 0x0413	; 0x800413 <__TEXT_REGION_LENGTH__+0x700413>
  d6:	40 91 01 04 	lds	r20, 0x0401	; 0x800401 <__TEXT_REGION_LENGTH__+0x700401>
  da:	be 01       	movw	r22, r28
  dc:	02 c0       	rjmp	.+4      	; 0xe2 <main+0x66>
  de:	66 0f       	add	r22, r22
  e0:	77 1f       	adc	r23, r23
  e2:	8a 95       	dec	r24
  e4:	e2 f7       	brpl	.-8      	; 0xde <main+0x62>
  e6:	cb 01       	movw	r24, r22
  e8:	fe 01       	movw	r30, r28
  ea:	02 c0       	rjmp	.+4      	; 0xf0 <main+0x74>
  ec:	ee 0f       	add	r30, r30
  ee:	ff 1f       	adc	r31, r31
  f0:	2a 95       	dec	r18
  f2:	e2 f7       	brpl	.-8      	; 0xec <main+0x70>
  f4:	8e 2b       	or	r24, r30
  f6:	9f 2b       	or	r25, r31
  f8:	84 2b       	or	r24, r20
  fa:	80 93 01 04 	sts	0x0401, r24	; 0x800401 <__TEXT_REGION_LENGTH__+0x700401>
  fe:	90 91 12 04 	lds	r25, 0x0412	; 0x800412 <__TEXT_REGION_LENGTH__+0x700412>
 102:	80 91 20 08 	lds	r24, 0x0820	; 0x800820 <__TEXT_REGION_LENGTH__+0x700820>
 106:	01 c0       	rjmp	.+2      	; 0x10a <main+0x8e>
 108:	cc 0f       	add	r28, r28
 10a:	9a 95       	dec	r25
 10c:	ea f7       	brpl	.-6      	; 0x108 <main+0x8c>
 10e:	c8 2b       	or	r28, r24
 110:	c0 93 20 08 	sts	0x0820, r28	; 0x800820 <__TEXT_REGION_LENGTH__+0x700820>
 114:	80 91 24 04 	lds	r24, 0x0424	; 0x800424 <__TEXT_REGION_LENGTH__+0x700424>
 118:	8d 7f       	andi	r24, 0xFD	; 253
 11a:	80 93 24 04 	sts	0x0424, r24	; 0x800424 <__TEXT_REGION_LENGTH__+0x700424>
 11e:	80 91 20 04 	lds	r24, 0x0420	; 0x800420 <__TEXT_REGION_LENGTH__+0x700420>
 122:	82 60       	ori	r24, 0x02	; 2
 124:	80 93 20 04 	sts	0x0420, r24	; 0x800420 <__TEXT_REGION_LENGTH__+0x700420>
 128:	80 91 24 04 	lds	r24, 0x0424	; 0x800424 <__TEXT_REGION_LENGTH__+0x700424>
 12c:	8b 7f       	andi	r24, 0xFB	; 251
 12e:	80 93 24 04 	sts	0x0424, r24	; 0x800424 <__TEXT_REGION_LENGTH__+0x700424>
 132:	80 91 20 04 	lds	r24, 0x0420	; 0x800420 <__TEXT_REGION_LENGTH__+0x700420>
 136:	84 60       	ori	r24, 0x04	; 4
 138:	80 93 20 04 	sts	0x0420, r24	; 0x800420 <__TEXT_REGION_LENGTH__+0x700420>
 13c:	80 91 24 04 	lds	r24, 0x0424	; 0x800424 <__TEXT_REGION_LENGTH__+0x700424>
 140:	87 7f       	andi	r24, 0xF7	; 247
 142:	80 93 24 04 	sts	0x0424, r24	; 0x800424 <__TEXT_REGION_LENGTH__+0x700424>
 146:	80 91 20 04 	lds	r24, 0x0420	; 0x800420 <__TEXT_REGION_LENGTH__+0x700420>
 14a:	88 60       	ori	r24, 0x08	; 8
 14c:	80 93 20 04 	sts	0x0420, r24	; 0x800420 <__TEXT_REGION_LENGTH__+0x700420>
 150:	80 91 21 04 	lds	r24, 0x0421	; 0x800421 <__TEXT_REGION_LENGTH__+0x700421>
 154:	8e 7f       	andi	r24, 0xFE	; 254
 156:	80 93 21 04 	sts	0x0421, r24	; 0x800421 <__TEXT_REGION_LENGTH__+0x700421>
 15a:	80 91 30 04 	lds	r24, 0x0430	; 0x800430 <__TEXT_REGION_LENGTH__+0x700430>
 15e:	81 60       	ori	r24, 0x01	; 1
 160:	80 93 30 04 	sts	0x0430, r24	; 0x800430 <__TEXT_REGION_LENGTH__+0x700430>
 164:	80 91 20 08 	lds	r24, 0x0820	; 0x800820 <__TEXT_REGION_LENGTH__+0x700820>
 168:	87 62       	ori	r24, 0x27	; 39
 16a:	80 93 20 08 	sts	0x0820, r24	; 0x800820 <__TEXT_REGION_LENGTH__+0x700820>
 16e:	83 e0       	ldi	r24, 0x03	; 3
 170:	e3 ed       	ldi	r30, 0xD3	; 211
 172:	f0 e3       	ldi	r31, 0x30	; 48
 174:	31 97       	sbiw	r30, 0x01	; 1
 176:	f1 f7       	brne	.-4      	; 0x174 <main+0xf8>
 178:	00 c0       	rjmp	.+0      	; 0x17a <main+0xfe>
 17a:	00 00       	nop
 17c:	80 93 00 3e 	sts	0x3E00, r24	; 0x803e00 <_edata>
 180:	f7 cf       	rjmp	.-18     	; 0x170 <main+0xf4>

00000182 <_exit>:
 182:	f8 94       	cli

00000184 <__stop_program>:
 184:	ff cf       	rjmp	.-2      	; 0x184 <__stop_program>
